target datalayout = "e-m:e-p270:32:32-p271:32:32-p272:64:64-i64:64-i128:128-f80:128-n8:16:32:64-S128"
target triple = "x86_64-pc-linux-gnu"

%class.Metadata = type { ptr }
%class.AccessFlags = type { i32 }
%class.stackChunkHandle = type { %class.Handle }
%class.Handle = type { ptr }
%class.vframe = type { ptr, %class.frame, %class.RegisterMap, ptr, %class.stackChunkHandle }
%class.frame = type { %union.anon, ptr, ptr, ptr, i32, i8, %union.anon.0, %union.anon.1 }
%union.anon = type { ptr }
%union.anon.0 = type { ptr }
%union.anon.1 = type { ptr }
%class.RegisterMap = type <{ [609 x ptr], [10 x i64], i8, [7 x i8], ptr, %class.stackChunkHandle, i32, i8, i8, i8, i8 }>
%class.CodeBlob = type <{ ptr, ptr, ptr, i32, i32, i32, i32, i32, i32, i16, i16, i8, i8, [2 x i8] }>
%class.vframeStreamCommon = type { %class.frame, ptr, %class.RegisterMap, i32, i32, i32, i32, ptr, i32, ptr, i8, %class.Handle }
%class.Method = type { %class.Metadata, ptr, ptr, ptr, ptr, %class.AccessFlags, i32, %class.MethodFlags, i16, %class.JfrTraceFlag, ptr, ptr, ptr, ptr }
%class.MethodFlags = type { i32 }
%class.JfrTraceFlag = type { i16 }
%class.compiledVFrame = type <{ %class.javaVFrame, ptr, i32, [4 x i8] }>
%class.javaVFrame = type { %class.vframe }
%class.ScopeDesc = type { ptr, i32, i8, i8, i8, i8, i8, i32, i32, i32, i32, i32, ptr, ptr }
%class.nmethod = type <{ %class.CodeBlob.base, [2 x i8], i64, i64, ptr, %union.anon.8, ptr, ptr, ptr, ptr, ptr, ptr, ptr, i16, i16, i32, i32, i32, i32, i32, i32, i32, i16, i16, i16, i16, i16, i16, i32, i32, i32, i32, i32, i8, i8, i8, i8, i8, i8, [2 x i8] }>
%class.CodeBlob.base = type <{ ptr, ptr, ptr, i32, i32, i32, i32, i32, i32, i16, i16, i8, i8 }>
%union.anon.8 = type { ptr }

@g_assert_poison = external global ptr, align 8
@.str.16 = private unnamed_addr constant [37 x i8] c"src/hotspot/share/runtime/vframe.cpp\00", align 1
@.str.17 = private unnamed_addr constant [40 x i8] c"guarantee(_reg_map.update_map()) failed\00", align 1
@.str.18 = private unnamed_addr constant [1 x i8] zeroinitializer, align 1
@.str.19 = private unnamed_addr constant [36 x i8] c"guarantee(cvf->cb() == cb()) failed\00", align 1
@.str.20 = private unnamed_addr constant [16 x i8] c"wrong code blob\00", align 1
@.str.21 = private unnamed_addr constant [66 x i8] c"guarantee(cvf->scope()->decode_offset() == _decode_offset) failed\00", align 1
@.str.22 = private unnamed_addr constant [12 x i8] c"wrong scope\00", align 1
@.str.23 = private unnamed_addr constant [80 x i8] c"guarantee(cvf->scope()->sender_decode_offset() == _sender_decode_offset) failed\00", align 1
@.str.24 = private unnamed_addr constant [49 x i8] c"guarantee(cvf->vframe_id() == _vframe_id) failed\00", align 1
@.str.25 = private unnamed_addr constant [13 x i8] c"wrong vframe\00", align 1

; Function Attrs: mustprogress nounwind uwtable
define linkonce_odr hidden noundef zeroext i1 @_ZNK11AccessFlags9is_nativeEv(ptr noundef nonnull align 4 dereferenceable(4) %0) #1 comdat align 2 {
  %2 = alloca ptr, align 8
  store ptr %0, ptr %2, align 8
  %3 = load ptr, ptr %2, align 8
  %4 = getelementptr inbounds %class.AccessFlags, ptr %3, i32 0, i32 0
  %5 = load i32, ptr %4, align 4
  %6 = and i32 %5, 256
  %7 = icmp ne i32 %6, 0
  ret i1 %7
}

; Function Attrs: mustprogress nounwind uwtable
define linkonce_odr hidden i32 @_ZNK6Method12access_flagsEv(ptr noundef nonnull align 8 dereferenceable(88) %0) #1 comdat align 2 {
  %2 = alloca %class.AccessFlags, align 4
  %3 = alloca ptr, align 8
  store ptr %0, ptr %3, align 8
  %4 = load ptr, ptr %3, align 8
  %5 = getelementptr inbounds %class.Method, ptr %4, i32 0, i32 5
  call void @llvm.memcpy.p0.p0.i64(ptr align 4 %2, ptr align 8 %5, i64 4, i1 false)
  %6 = getelementptr inbounds %class.AccessFlags, ptr %2, i32 0, i32 0
  %7 = load i32, ptr %6, align 4
  ret i32 %7
}

; Function Attrs: mustprogress nounwind uwtable
define linkonce_odr hidden noundef zeroext i1 @_ZNK6Method9is_nativeEv(ptr noundef nonnull align 8 dereferenceable(88) %0) #1 comdat align 2 {
  %2 = alloca ptr, align 8
  %3 = alloca %class.AccessFlags, align 4
  store ptr %0, ptr %2, align 8
  %4 = load ptr, ptr %2, align 8
  %5 = call i32 @_ZNK6Method12access_flagsEv(ptr noundef nonnull align 8 dereferenceable(88) %4)
  %6 = getelementptr inbounds %class.AccessFlags, ptr %3, i32 0, i32 0
  store i32 %5, ptr %6, align 4
  %7 = call noundef zeroext i1 @_ZNK11AccessFlags9is_nativeEv(ptr noundef nonnull align 4 dereferenceable(4) %3)
  ret i1 %7
}

; Function Attrs: mustprogress nounwind uwtable
define linkonce_odr hidden noundef ptr @_ZNK5frame2cbEv(ptr noundef nonnull align 8 dereferenceable(56) %0) #1 comdat align 2 {
  %2 = alloca ptr, align 8
  store ptr %0, ptr %2, align 8
  %3 = load ptr, ptr %2, align 8
  %4 = getelementptr inbounds %class.frame, ptr %3, i32 0, i32 2
  %5 = load ptr, ptr %4, align 8
  ret ptr %5
}

; Function Attrs: mustprogress nounwind uwtable
define linkonce_odr hidden noundef zeroext i1 @_ZNK7nmethod14is_java_methodEv(ptr noundef nonnull align 8 dereferenceable(214) %0) #1 comdat align 2 {
  %2 = alloca ptr, align 8
  store ptr %0, ptr %2, align 8
  %3 = load ptr, ptr %2, align 8
  %4 = getelementptr inbounds %class.nmethod, ptr %3, i32 0, i32 4
  %5 = load ptr, ptr %4, align 8
  %6 = icmp ne ptr %5, null
  br i1 %6, label %7, label %12

7:                                                ; preds = %1
  %8 = getelementptr inbounds %class.nmethod, ptr %3, i32 0, i32 4
  %9 = load ptr, ptr %8, align 8
  %10 = call noundef zeroext i1 @_ZNK6Method9is_nativeEv(ptr noundef nonnull align 8 dereferenceable(88) %9)
  %11 = xor i1 %10, true
  br label %12

12:                                               ; preds = %7, %1
  %13 = phi i1 [ false, %1 ], [ %11, %7 ]
  ret i1 %13
}

; Function Attrs: mustprogress nounwind uwtable
define linkonce_odr hidden noundef ptr @_ZN8CodeBlob10as_nmethodEv(ptr noundef nonnull align 8 dereferenceable(54) %0) #1 comdat align 2 {
  %2 = alloca ptr, align 8
  store ptr %0, ptr %2, align 8
  %3 = load ptr, ptr %2, align 8
  ret ptr %3
}

; Function Attrs: mustprogress nounwind uwtable
define linkonce_odr hidden noundef zeroext i1 @_ZNK8CodeBlob10is_nmethodEv(ptr noundef nonnull align 8 dereferenceable(54) %0) #1 comdat align 2 {
  %2 = alloca ptr, align 8
  store ptr %0, ptr %2, align 8
  %3 = load ptr, ptr %2, align 8
  %4 = getelementptr inbounds %class.CodeBlob, ptr %3, i32 0, i32 11
  %5 = load i8, ptr %4, align 4
  %6 = icmp eq i8 %5, 1
  ret i1 %6
}

; Function Attrs: mustprogress nounwind uwtable
define linkonce_odr hidden noundef ptr @_ZN10javaVFrame4castEP6vframe(ptr noundef %0) #1 comdat align 2 {
  %2 = alloca ptr, align 8
  store ptr %0, ptr %2, align 8
  %3 = load ptr, ptr %2, align 8
  ret ptr %3
}

; Function Attrs: mustprogress nounwind uwtable
define linkonce_odr hidden noundef i32 @_ZNK14compiledVFrame9vframe_idEv(ptr noundef nonnull align 8 dereferenceable(5076) %0) #1 comdat align 2 {
  %2 = alloca ptr, align 8
  store ptr %0, ptr %2, align 8
  %3 = load ptr, ptr %2, align 8
  %4 = getelementptr inbounds %class.compiledVFrame, ptr %3, i32 0, i32 2
  %5 = load i32, ptr %4, align 8
  ret i32 %5
}

; Function Attrs: mustprogress nounwind uwtable
define linkonce_odr hidden noundef i32 @_ZNK9ScopeDesc20sender_decode_offsetEv(ptr noundef nonnull align 8 dereferenceable(56) %0) #1 comdat align 2 {
  %2 = alloca ptr, align 8
  store ptr %0, ptr %2, align 8
  %3 = load ptr, ptr %2, align 8
  %4 = getelementptr inbounds %class.ScopeDesc, ptr %3, i32 0, i32 8
  %5 = load i32, ptr %4, align 8
  ret i32 %5
}

; Function Attrs: mustprogress nounwind uwtable
define linkonce_odr hidden noundef i32 @_ZNK9ScopeDesc13decode_offsetEv(ptr noundef nonnull align 8 dereferenceable(56) %0) #1 comdat align 2 {
  %2 = alloca ptr, align 8
  store ptr %0, ptr %2, align 8
  %3 = load ptr, ptr %2, align 8
  %4 = getelementptr inbounds %class.ScopeDesc, ptr %3, i32 0, i32 7
  %5 = load i32, ptr %4, align 4
  ret i32 %5
}

; Function Attrs: mustprogress nounwind uwtable
define linkonce_odr hidden noundef ptr @_ZNK14compiledVFrame5scopeEv(ptr noundef nonnull align 8 dereferenceable(5076) %0) #1 comdat align 2 {
  %2 = alloca ptr, align 8
  store ptr %0, ptr %2, align 8
  %3 = load ptr, ptr %2, align 8
  %4 = getelementptr inbounds %class.compiledVFrame, ptr %3, i32 0, i32 1
  %5 = load ptr, ptr %4, align 8
  ret ptr %5
}

; Function Attrs: mustprogress nounwind uwtable
define linkonce_odr hidden noundef ptr @_ZNK18vframeStreamCommon2cbEv(ptr noundef nonnull align 8 dereferenceable(5104) %0) #1 comdat align 2 {
  %2 = alloca ptr, align 8
  store ptr %0, ptr %2, align 8
  %3 = load ptr, ptr %2, align 8
  %4 = getelementptr inbounds %class.vframeStreamCommon, ptr %3, i32 0, i32 0
  %5 = call noundef ptr @_ZNK5frame2cbEv(ptr noundef nonnull align 8 dereferenceable(56) %4)
  ret ptr %5
}

; Function Attrs: mustprogress nounwind uwtable
define linkonce_odr hidden noundef ptr @_ZNK6vframe2cbEv(ptr noundef nonnull align 8 dereferenceable(5064) %0) #1 comdat align 2 {
  %2 = alloca ptr, align 8
  store ptr %0, ptr %2, align 8
  %3 = load ptr, ptr %2, align 8
  %4 = getelementptr inbounds %class.vframe, ptr %3, i32 0, i32 1
  %5 = call noundef ptr @_ZNK5frame2cbEv(ptr noundef nonnull align 8 dereferenceable(56) %4)
  ret ptr %5
}

; Function Attrs: mustprogress nounwind uwtable
define linkonce_odr hidden noundef ptr @_ZN14compiledVFrame4castEP6vframe(ptr noundef %0) #1 comdat align 2 {
  %2 = alloca ptr, align 8
  store ptr %0, ptr %2, align 8
  %3 = load ptr, ptr %2, align 8
  ret ptr %3
}

; Function Attrs: mustprogress nounwind uwtable
define linkonce_odr hidden noundef zeroext i1 @_ZNK11RegisterMap10update_mapEv(ptr noundef nonnull align 8 dereferenceable(4983) %0) #1 comdat align 2 {
  %2 = alloca ptr, align 8
  store ptr %0, ptr %2, align 8
  %3 = load ptr, ptr %2, align 8
  %4 = getelementptr inbounds %class.RegisterMap, ptr %3, i32 0, i32 7
  %5 = load i8, ptr %4, align 4
  %6 = trunc i8 %5 to i1
  ret i1 %6
}

; Function Attrs: mustprogress nounwind uwtable
define linkonce_odr hidden noundef zeroext i1 @_ZNK5frame17is_compiled_frameEv(ptr noundef nonnull align 8 dereferenceable(56) %0) #1 comdat align 2 {
  %2 = alloca i1, align 1
  %3 = alloca ptr, align 8
  store ptr %0, ptr %3, align 8
  %4 = load ptr, ptr %3, align 8
  %5 = getelementptr inbounds %class.frame, ptr %4, i32 0, i32 2
  %6 = load ptr, ptr %5, align 8
  %7 = icmp ne ptr %6, null
  br i1 %7, label %8, label %18

8:                                                ; preds = %1
  %9 = getelementptr inbounds %class.frame, ptr %4, i32 0, i32 2
  %10 = load ptr, ptr %9, align 8
  %11 = call noundef zeroext i1 @_ZNK8CodeBlob10is_nmethodEv(ptr noundef nonnull align 8 dereferenceable(54) %10)
  br i1 %11, label %12, label %18

12:                                               ; preds = %8
  %13 = getelementptr inbounds %class.frame, ptr %4, i32 0, i32 2
  %14 = load ptr, ptr %13, align 8
  %15 = call noundef ptr @_ZN8CodeBlob10as_nmethodEv(ptr noundef nonnull align 8 dereferenceable(54) %14)
  %16 = call noundef zeroext i1 @_ZNK7nmethod14is_java_methodEv(ptr noundef nonnull align 8 dereferenceable(214) %15)
  br i1 %16, label %17, label %18

17:                                               ; preds = %12
  store i1 true, ptr %2, align 1
  br label %19

18:                                               ; preds = %12, %8, %1
  store i1 false, ptr %2, align 1
  br label %19

19:                                               ; preds = %18, %17
  %20 = load i1, ptr %2, align 1
  ret i1 %20
}

; Function Attrs: mustprogress nounwind uwtable
define hidden noundef ptr @_ZN18vframeStreamCommon12asJavaVFrameEv(ptr noundef nonnull align 8 dereferenceable(5104) %0) #1 align 2 {
  %2 = alloca ptr, align 8
  %3 = alloca ptr, align 8
  %4 = alloca ptr, align 8
  store ptr %0, ptr %2, align 8
  %5 = load ptr, ptr %2, align 8
  store ptr null, ptr %3, align 8
  %6 = getelementptr inbounds %class.vframeStreamCommon, ptr %5, i32 0, i32 3
  %7 = load i32, ptr %6, align 8
  %8 = icmp eq i32 %7, 1
  br i1 %8, label %9, label %74

9:                                                ; preds = %1
  %10 = getelementptr inbounds %class.vframeStreamCommon, ptr %5, i32 0, i32 0
  %11 = call noundef zeroext i1 @_ZNK5frame17is_compiled_frameEv(ptr noundef nonnull align 8 dereferenceable(56) %10)
  br i1 %11, label %12, label %74

12:                                               ; preds = %9
  br label %13

13:                                               ; preds = %12
  %14 = getelementptr inbounds %class.vframeStreamCommon, ptr %5, i32 0, i32 2
  %15 = call noundef zeroext i1 @_ZNK11RegisterMap10update_mapEv(ptr noundef nonnull align 8 dereferenceable(4983) %14)
  br i1 %15, label %18, label %16

16:                                               ; preds = %13
  %17 = load ptr, ptr @g_assert_poison, align 8
  store i8 88, ptr %17, align 1
  call void (ptr, i32, ptr, ptr, ...) @_Z15report_vm_errorPKciS0_S0_z(ptr noundef @.str.16, i32 noundef 600, ptr noundef @.str.17, ptr noundef @.str.18) #10
  unreachable

18:                                               ; preds = %13
  br label %19

19:                                               ; preds = %18
  %20 = getelementptr inbounds %class.vframeStreamCommon, ptr %5, i32 0, i32 0
  %21 = getelementptr inbounds %class.vframeStreamCommon, ptr %5, i32 0, i32 2
  %22 = getelementptr inbounds %class.vframeStreamCommon, ptr %5, i32 0, i32 1
  %23 = load ptr, ptr %22, align 8
  %24 = call noundef ptr @_ZN6vframe10new_vframeEPK5framePK11RegisterMapP10JavaThread(ptr noundef %20, ptr noundef %21, ptr noundef %23)
  %25 = call noundef ptr @_ZN14compiledVFrame4castEP6vframe(ptr noundef %24)
  store ptr %25, ptr %4, align 8
  br label %26

26:                                               ; preds = %19
  %27 = load ptr, ptr %4, align 8
  %28 = call noundef ptr @_ZNK6vframe2cbEv(ptr noundef nonnull align 8 dereferenceable(5064) %27)
  %29 = call noundef ptr @_ZNK18vframeStreamCommon2cbEv(ptr noundef nonnull align 8 dereferenceable(5104) %5)
  %30 = icmp eq ptr %28, %29
  br i1 %30, label %33, label %31

31:                                               ; preds = %26
  %32 = load ptr, ptr @g_assert_poison, align 8
  store i8 88, ptr %32, align 1
  call void (ptr, i32, ptr, ptr, ...) @_Z15report_vm_errorPKciS0_S0_z(ptr noundef @.str.16, i32 noundef 604, ptr noundef @.str.19, ptr noundef @.str.20) #10
  unreachable

33:                                               ; preds = %26
  br label %34

34:                                               ; preds = %33
  %35 = load ptr, ptr %4, align 8
  %36 = getelementptr inbounds %class.vframeStreamCommon, ptr %5, i32 0, i32 4
  %37 = load i32, ptr %36, align 4
  %38 = getelementptr inbounds %class.vframeStreamCommon, ptr %5, i32 0, i32 6
  %39 = load i32, ptr %38, align 4
  %40 = call noundef ptr @_ZN14compiledVFrame8at_scopeEii(ptr noundef nonnull align 8 dereferenceable(5076) %35, i32 noundef %37, i32 noundef %39)
  store ptr %40, ptr %4, align 8
  br label %41

41:                                               ; preds = %34
  %42 = load ptr, ptr %4, align 8
  %43 = call noundef ptr @_ZNK14compiledVFrame5scopeEv(ptr noundef nonnull align 8 dereferenceable(5076) %42)
  %44 = call noundef i32 @_ZNK9ScopeDesc13decode_offsetEv(ptr noundef nonnull align 8 dereferenceable(56) %43)
  %45 = getelementptr inbounds %class.vframeStreamCommon, ptr %5, i32 0, i32 4
  %46 = load i32, ptr %45, align 4
  %47 = icmp eq i32 %44, %46
  br i1 %47, label %50, label %48

48:                                               ; preds = %41
  %49 = load ptr, ptr @g_assert_poison, align 8
  store i8 88, ptr %49, align 1
  call void (ptr, i32, ptr, ptr, ...) @_Z15report_vm_errorPKciS0_S0_z(ptr noundef @.str.16, i32 noundef 608, ptr noundef @.str.21, ptr noundef @.str.22) #10
  unreachable

50:                                               ; preds = %41
  br label %51

51:                                               ; preds = %50
  br label %52

52:                                               ; preds = %51
  %53 = load ptr, ptr %4, align 8
  %54 = call noundef ptr @_ZNK14compiledVFrame5scopeEv(ptr noundef nonnull align 8 dereferenceable(5076) %53)
  %55 = call noundef i32 @_ZNK9ScopeDesc20sender_decode_offsetEv(ptr noundef nonnull align 8 dereferenceable(56) %54)
  %56 = getelementptr inbounds %class.vframeStreamCommon, ptr %5, i32 0, i32 5
  %57 = load i32, ptr %56, align 8
  %58 = icmp eq i32 %55, %57
  br i1 %58, label %61, label %59

59:                                               ; preds = %52
  %60 = load ptr, ptr @g_assert_poison, align 8
  store i8 88, ptr %60, align 1
  call void (ptr, i32, ptr, ptr, ...) @_Z15report_vm_errorPKciS0_S0_z(ptr noundef @.str.16, i32 noundef 609, ptr noundef @.str.23, ptr noundef @.str.22) #10
  unreachable

61:                                               ; preds = %52
  br label %62

62:                                               ; preds = %61
  br label %63

63:                                               ; preds = %62
  %64 = load ptr, ptr %4, align 8
  %65 = call noundef i32 @_ZNK14compiledVFrame9vframe_idEv(ptr noundef nonnull align 8 dereferenceable(5076) %64)
  %66 = getelementptr inbounds %class.vframeStreamCommon, ptr %5, i32 0, i32 6
  %67 = load i32, ptr %66, align 4
  %68 = icmp eq i32 %65, %67
  br i1 %68, label %71, label %69

69:                                               ; preds = %63
  %70 = load ptr, ptr @g_assert_poison, align 8
  store i8 88, ptr %70, align 1
  call void (ptr, i32, ptr, ptr, ...) @_Z15report_vm_errorPKciS0_S0_z(ptr noundef @.str.16, i32 noundef 610, ptr noundef @.str.24, ptr noundef @.str.25) #10
  unreachable

71:                                               ; preds = %63
  br label %72

72:                                               ; preds = %71
  %73 = load ptr, ptr %4, align 8
  store ptr %73, ptr %3, align 8
  br label %81

74:                                               ; preds = %9, %1
  %75 = getelementptr inbounds %class.vframeStreamCommon, ptr %5, i32 0, i32 0
  %76 = getelementptr inbounds %class.vframeStreamCommon, ptr %5, i32 0, i32 2
  %77 = getelementptr inbounds %class.vframeStreamCommon, ptr %5, i32 0, i32 1
  %78 = load ptr, ptr %77, align 8
  %79 = call noundef ptr @_ZN6vframe10new_vframeEPK5framePK11RegisterMapP10JavaThread(ptr noundef %75, ptr noundef %76, ptr noundef %78)
  %80 = call noundef ptr @_ZN10javaVFrame4castEP6vframe(ptr noundef %79)
  store ptr %80, ptr %3, align 8
  br label %81

81:                                               ; preds = %74, %72
  %82 = load ptr, ptr %3, align 8
  ret ptr %82
}