; Function Attrs: mustprogress nounwind uwtable
define hidden noundef ptr @_ZN18vframeStreamCommon12asJavaVFrameEv(ptr noundef nonnull align 8 dereferenceable(5104) %0) local_unnamed_addr #0 align 2 {
  %2 = getelementptr inbounds i8, ptr %0, i64 5048
  %3 = load i32, ptr %2, align 8
  %4 = icmp eq i32 %3, 1
  br i1 %4, label %5, label %_ZNK5frame17is_compiled_frameEv.exit

5:                                                ; preds = %1
  %6 = getelementptr inbounds i8, ptr %0, i64 16
  %7 = load ptr, ptr %6, align 8
  %.not.i = icmp eq ptr %7, null
  br i1 %.not.i, label %_ZNK5frame17is_compiled_frameEv.exit, label %8

8:                                                ; preds = %5
  %9 = getelementptr inbounds i8, ptr %7, i64 52
  %10 = load i8, ptr %9, align 4
  %11 = icmp eq i8 %10, 1
  br i1 %11, label %12, label %_ZNK5frame17is_compiled_frameEv.exit

12:                                               ; preds = %8
  %13 = getelementptr inbounds i8, ptr %7, i64 72
  %14 = load ptr, ptr %13, align 8
  %.not.i.i = icmp eq ptr %14, null
  br i1 %.not.i.i, label %_ZNK5frame17is_compiled_frameEv.exit, label %_ZNK7nmethod14is_java_methodEv.exit.i

_ZNK7nmethod14is_java_methodEv.exit.i:            ; preds = %12
  %15 = getelementptr inbounds i8, ptr %14, i64 40
  %.sroa.0.0.copyload.i.i.i.i = load i32, ptr %15, align 8
  %16 = and i32 %.sroa.0.0.copyload.i.i.i.i, 256
  %.not1.i.i = icmp eq i32 %16, 0
  br i1 %.not1.i.i, label %17, label %_ZNK5frame17is_compiled_frameEv.exit

17:                                               ; preds = %_ZNK7nmethod14is_java_methodEv.exit.i
  %18 = getelementptr inbounds i8, ptr %0, i64 5044
  %19 = load i8, ptr %18, align 4
  %20 = trunc i8 %19 to i1
  br i1 %20, label %23, label %21

21:                                               ; preds = %17
  %22 = load ptr, ptr @g_assert_poison, align 8
  store i8 88, ptr %22, align 1
  tail call void (ptr, i32, ptr, ptr, ...) @_Z15report_vm_errorPKciS0_S0_z(ptr noundef nonnull @.str.16, i32 noundef 600, ptr noundef nonnull @.str.17, ptr noundef nonnull @.str.18) #13
  unreachable

23:                                               ; preds = %17
  %24 = getelementptr inbounds i8, ptr %0, i64 64
  %25 = getelementptr inbounds i8, ptr %0, i64 56
  %26 = load ptr, ptr %25, align 8
  %27 = tail call noundef ptr @_ZN6vframe10new_vframeEPK5framePK11RegisterMapP10JavaThread(ptr noundef nonnull %0, ptr noundef nonnull %24, ptr noundef %26)
  %28 = getelementptr inbounds i8, ptr %27, i64 24
  %29 = load ptr, ptr %28, align 8
  %30 = load ptr, ptr %6, align 8
  %31 = icmp eq ptr %29, %30
  br i1 %31, label %34, label %32

32:                                               ; preds = %23
  %33 = load ptr, ptr @g_assert_poison, align 8
  store i8 88, ptr %33, align 1
  tail call void (ptr, i32, ptr, ptr, ...) @_Z15report_vm_errorPKciS0_S0_z(ptr noundef nonnull @.str.16, i32 noundef 604, ptr noundef nonnull @.str.19, ptr noundef nonnull @.str.20) #13
  unreachable

34:                                               ; preds = %23
  %35 = getelementptr inbounds i8, ptr %0, i64 5052
  %36 = load i32, ptr %35, align 4
  %37 = getelementptr inbounds i8, ptr %0, i64 5060
  %38 = load i32, ptr %37, align 4
  %39 = tail call noundef ptr @_ZN14compiledVFrame8at_scopeEii(ptr noundef nonnull align 8 dereferenceable(5076) %27, i32 noundef %36, i32 noundef %38) #11
  %40 = getelementptr inbounds i8, ptr %39, i64 5064
  %41 = load ptr, ptr %40, align 8
  %42 = getelementptr inbounds i8, ptr %41, i64 20
  %43 = load i32, ptr %42, align 4
  %44 = load i32, ptr %35, align 4
  %45 = icmp eq i32 %43, %44
  br i1 %45, label %48, label %46

46:                                               ; preds = %34
  %47 = load ptr, ptr @g_assert_poison, align 8
  store i8 88, ptr %47, align 1
  tail call void (ptr, i32, ptr, ptr, ...) @_Z15report_vm_errorPKciS0_S0_z(ptr noundef nonnull @.str.16, i32 noundef 608, ptr noundef nonnull @.str.21, ptr noundef nonnull @.str.22) #13
  unreachable

48:                                               ; preds = %34
  %49 = getelementptr inbounds i8, ptr %41, i64 24
  %50 = load i32, ptr %49, align 8
  %51 = getelementptr inbounds i8, ptr %0, i64 5056
  %52 = load i32, ptr %51, align 8
  %53 = icmp eq i32 %50, %52
  br i1 %53, label %56, label %54

54:                                               ; preds = %48
  %55 = load ptr, ptr @g_assert_poison, align 8
  store i8 88, ptr %55, align 1
  tail call void (ptr, i32, ptr, ptr, ...) @_Z15report_vm_errorPKciS0_S0_z(ptr noundef nonnull @.str.16, i32 noundef 609, ptr noundef nonnull @.str.23, ptr noundef nonnull @.str.22) #13
  unreachable

56:                                               ; preds = %48
  %57 = getelementptr inbounds i8, ptr %39, i64 5072
  %58 = load i32, ptr %57, align 8
  %59 = load i32, ptr %37, align 4
  %60 = icmp eq i32 %58, %59
  br i1 %60, label %67, label %61

61:                                               ; preds = %56
  %62 = load ptr, ptr @g_assert_poison, align 8
  store i8 88, ptr %62, align 1
  tail call void (ptr, i32, ptr, ptr, ...) @_Z15report_vm_errorPKciS0_S0_z(ptr noundef nonnull @.str.16, i32 noundef 610, ptr noundef nonnull @.str.24, ptr noundef nonnull @.str.25) #13
  unreachable

_ZNK5frame17is_compiled_frameEv.exit:             ; preds = %_ZNK7nmethod14is_java_methodEv.exit.i, %12, %8, %5, %1
  %63 = getelementptr inbounds i8, ptr %0, i64 64
  %64 = getelementptr inbounds i8, ptr %0, i64 56
  %65 = load ptr, ptr %64, align 8
  %66 = tail call noundef ptr @_ZN6vframe10new_vframeEPK5framePK11RegisterMapP10JavaThread(ptr noundef nonnull %0, ptr noundef nonnull %63, ptr noundef %65)
  br label %67

67:                                               ; preds = %56, %_ZNK5frame17is_compiled_frameEv.exit
  %.0 = phi ptr [ %66, %_ZNK5frame17is_compiled_frameEv.exit ], [ %39, %56 ]
  ret ptr %.0
}